; Function Attrs: nounwind uwtable
define range(i32 -22, 1) i32 @MRIStepInnerStepper_GetContent(ptr noundef readonly captures(address_is_null) %0, ptr noundef writeonly captures(none) %1) local_unnamed_addr #0 {
  %3 = icmp eq ptr %0, null
  br i1 %3, label %4, label %5

4:                                                ; preds = %2
  tail call void (ptr, i32, i32, ptr, ptr, ptr, ...) @arkProcessError(ptr noundef null, i32 noundef -22, i32 noundef 4347, ptr noundef nonnull @__func__.MRIStepInnerStepper_GetContent, ptr noundef nonnull @.str, ptr noundef nonnull @.str.96) #14
  br label %7

5:                                                ; preds = %2
  %6 = load ptr, ptr %0, align 8, !tbaa !245
  store ptr %6, ptr %1, align 8, !tbaa !247
  br label %7

7:                                                ; preds = %5, %4
  %.0 = phi i32 [ -22, %4 ], [ 0, %5 ]
  ret i32 %.0
}